target datalayout = "e-m:e-p270:32:32-p271:32:32-p272:64:64-i64:64-i128:128-f80:128-n8:16:32:64-S128"
target triple = "x86_64-pc-linux-gnu"

%struct.stat = type { i64, i64, i64, i32, i32, i32, i32, i64, i64, i64, i64, %struct.timespec, %struct.timespec, %struct.timespec, [3 x i64] }
%struct.timespec = type { i64, i64 }

@stdout = external global ptr, align 8
@maybe_flush_or_die.force_flush_stdout = internal global i32 -1, align 4
@.str = private unnamed_addr constant [10 x i8] c"GIT_FLUSH\00", align 1
@.str.1 = private unnamed_addr constant [22 x i8] c"write failure on '%s'\00", align 1

; Function Attrs: nounwind uwtable
define dso_local void @maybe_flush_or_die(ptr noundef %0, ptr noundef %1) #0 {
  %3 = alloca ptr, align 8
  %4 = alloca ptr, align 8
  %5 = alloca %struct.stat, align 8
  store ptr %0, ptr %3, align 8, !tbaa !4
  store ptr %1, ptr %4, align 8, !tbaa !9
  %6 = load ptr, ptr %3, align 8, !tbaa !4
  %7 = load ptr, ptr @stdout, align 8, !tbaa !4
  %8 = icmp eq ptr %6, %7
  br i1 %8, label %9, label %40

9:                                                ; preds = %2
  %10 = load i32, ptr @maybe_flush_or_die.force_flush_stdout, align 4, !tbaa !11
  %11 = icmp slt i32 %10, 0
  br i1 %11, label %12, label %31

12:                                               ; preds = %9
  %13 = call i32 @git_env_bool(ptr noundef @.str, i32 noundef -1)
  store i32 %13, ptr @maybe_flush_or_die.force_flush_stdout, align 4, !tbaa !11
  %14 = load i32, ptr @maybe_flush_or_die.force_flush_stdout, align 4, !tbaa !11
  %15 = icmp slt i32 %14, 0
  br i1 %15, label %16, label %30

16:                                               ; preds = %12
  call void @llvm.lifetime.start.p0(i64 144, ptr %5) #7
  %17 = load ptr, ptr @stdout, align 8, !tbaa !4
  %18 = call i32 @fileno(ptr noundef %17) #7
  %19 = call i32 @fstat64(i32 noundef %18, ptr noundef %5) #7
  %20 = icmp ne i32 %19, 0
  br i1 %20, label %21, label %22

21:                                               ; preds = %16
  store i32 1, ptr @maybe_flush_or_die.force_flush_stdout, align 4, !tbaa !11
  br label %29

22:                                               ; preds = %16
  %23 = getelementptr inbounds nuw %struct.stat, ptr %5, i32 0, i32 3
  %24 = load i32, ptr %23, align 8, !tbaa !13
  %25 = and i32 %24, 61440
  %26 = icmp eq i32 %25, 32768
  %27 = xor i1 %26, true
  %28 = zext i1 %27 to i32
  store i32 %28, ptr @maybe_flush_or_die.force_flush_stdout, align 4, !tbaa !11
  br label %29

29:                                               ; preds = %22, %21
  call void @llvm.lifetime.end.p0(i64 144, ptr %5) #7
  br label %30

30:                                               ; preds = %29, %12
  br label %31

31:                                               ; preds = %30, %9
  %32 = load i32, ptr @maybe_flush_or_die.force_flush_stdout, align 4, !tbaa !11
  %33 = icmp ne i32 %32, 0
  br i1 %33, label %39, label %34

34:                                               ; preds = %31
  %35 = load ptr, ptr %3, align 8, !tbaa !4
  %36 = call i32 @ferror(ptr noundef %35) #7
  %37 = icmp ne i32 %36, 0
  br i1 %37, label %39, label %38

38:                                               ; preds = %34
  br label %48

39:                                               ; preds = %34, %31
  br label %40

40:                                               ; preds = %39, %2
  %41 = load ptr, ptr %3, align 8, !tbaa !4
  %42 = call i32 @fflush(ptr noundef %41)
  %43 = icmp ne i32 %42, 0
  br i1 %43, label %44, label %48

44:                                               ; preds = %40
  %45 = call ptr @__errno_location() #8
  %46 = load i32, ptr %45, align 4, !tbaa !11
  call void @check_pipe(i32 noundef %46)
  %47 = load ptr, ptr %4, align 8, !tbaa !9
  call void (ptr, ...) @die_errno(ptr noundef @.str.1, ptr noundef %47) #9
  unreachable

48:                                               ; preds = %38, %40
  ret void
}