; Function Attrs: nounwind uwtable
define dso_local void @maybe_flush_or_die(ptr noundef %0, ptr noundef %1) local_unnamed_addr #0 {
  %3 = alloca %struct.stat, align 8
  %4 = load ptr, ptr @stdout, align 8, !tbaa !4
  %5 = icmp eq ptr %0, %4
  br i1 %5, label %6, label %24

6:                                                ; preds = %2
  %7 = load i32, ptr @maybe_flush_or_die.force_flush_stdout, align 4, !tbaa !9
  %8 = icmp slt i32 %7, 0
  br i1 %8, label %9, label %20

9:                                                ; preds = %6
  %10 = tail call i32 @git_env_bool(ptr noundef nonnull @.str, i32 noundef -1) #8
  store i32 %10, ptr @maybe_flush_or_die.force_flush_stdout, align 4, !tbaa !9
  %11 = icmp slt i32 %10, 0
  br i1 %11, label %12, label %20

12:                                               ; preds = %9
  call void @llvm.lifetime.start.p0(i64 144, ptr nonnull %3) #8
  %13 = load ptr, ptr @stdout, align 8, !tbaa !4
  %14 = tail call i32 @fileno(ptr noundef %13) #8
  %15 = call i32 @fstat64(i32 noundef %14, ptr noundef nonnull %3) #8
  %.not = icmp ne i32 %15, 0
  %16 = getelementptr inbounds nuw i8, ptr %3, i64 24
  %17 = load i32, ptr %16, align 8
  %18 = and i32 %17, 61440
  %19 = icmp ne i32 %18, 32768
  %narrow = select i1 %.not, i1 true, i1 %19
  %storemerge = zext i1 %narrow to i32
  store i32 %storemerge, ptr @maybe_flush_or_die.force_flush_stdout, align 4, !tbaa !9
  call void @llvm.lifetime.end.p0(i64 144, ptr nonnull %3) #8
  br label %20

20:                                               ; preds = %9, %12, %6
  %21 = phi i32 [ %10, %9 ], [ %storemerge, %12 ], [ %7, %6 ]
  %.not4 = icmp eq i32 %21, 0
  br i1 %.not4, label %22, label %24

22:                                               ; preds = %20
  %23 = tail call i32 @ferror(ptr noundef %0) #8
  %.not5 = icmp eq i32 %23, 0
  br i1 %.not5, label %29, label %24

24:                                               ; preds = %20, %22, %2
  %25 = tail call i32 @fflush(ptr noundef %0)
  %.not6 = icmp eq i32 %25, 0
  br i1 %.not6, label %29, label %26

26:                                               ; preds = %24
  %27 = tail call ptr @__errno_location() #9
  %28 = load i32, ptr %27, align 4, !tbaa !9
  tail call void @check_pipe(i32 noundef %28) #8
  tail call void (ptr, ...) @die_errno(ptr noundef nonnull @.str.1, ptr noundef %1) #10
  unreachable

29:                                               ; preds = %22, %24
  ret void
}